; Function Attrs: mustprogress uwtable
define internal void @_ZN7rocksdb12_GLOBAL__N_111SkipListRep17LookaheadIterator11SeekForPrevERKNS_5SliceEPKc(ptr noundef nonnull align 8 dereferenceable(80) %this, ptr noundef nonnull align 8 dereferenceable(16) %internal_key, ptr noundef %memtable_key) unnamed_addr #3 align 2 {
entry:
  %cmp.not = icmp eq ptr %memtable_key, null
  br i1 %cmp.not, label %cond.false, label %cond.end

cond.false:                                       ; preds = %entry
  %tmp_ = getelementptr inbounds i8, ptr %this, i64 8
  %call = tail call noundef ptr @_ZN7rocksdb9EncodeKeyEPNSt7__cxx1112basic_stringIcSt11char_traitsIcESaIcEEERKNS_5SliceE(ptr noundef nonnull %tmp_, ptr noundef nonnull align 8 dereferenceable(16) %internal_key)
  br label %cond.end

cond.end:                                         ; preds = %entry, %cond.false
  %cond = phi ptr [ %call, %cond.false ], [ %memtable_key, %entry ]
  %iter_ = getelementptr inbounds i8, ptr %this, i64 48
  tail call void @_ZN7rocksdb14InlineSkipListIRKNS_11MemTableRep13KeyComparatorEE8Iterator11SeekForPrevEPKc(ptr noundef nonnull align 8 dereferenceable(16) %iter_, ptr noundef %cond)
  %prev_ = getelementptr inbounds i8, ptr %this, i64 64
  tail call void @llvm.memcpy.p0.p0.i64(ptr noundef nonnull align 8 dereferenceable(16) %prev_, ptr noundef nonnull align 8 dereferenceable(16) %iter_, i64 16, i1 false)
  ret void
}